target datalayout = "e-m:e-p270:32:32-p271:32:32-p272:64:64-i64:64-i128:128-f80:128-n8:16:32:64-S128"
target triple = "x86_64-pc-linux-gnu"

%"class.icu_70::UnicodeString" = type { %"class.icu_70::Replaceable", %"union.icu_70::UnicodeString::StackBufferOrFields" }
%"class.icu_70::Replaceable" = type { %"class.icu_70::UObject" }
%"class.icu_70::UObject" = type { ptr }
%"union.icu_70::UnicodeString::StackBufferOrFields" = type { %struct.anon.10, [32 x i8] }
%struct.anon.10 = type { i16, i32, i32, ptr }
%"class.boost::locale::impl_icu::formatters_cache" = type { %"class.std::locale::facet.base", [7 x %"class.boost::thread_specific_ptr"], [4 x %"class.icu_70::UnicodeString"], [4 x %"class.icu_70::UnicodeString"], [4 x [4 x %"class.icu_70::UnicodeString"]], %"class.icu_70::UnicodeString", %"class.icu_70::UnicodeString", %"class.icu_70::UnicodeString", %"class.boost::thread_specific_ptr.11", %"class.icu_70::Locale" }
%"class.std::locale::facet.base" = type <{ ptr, i32 }>
%"class.boost::thread_specific_ptr" = type { ptr }
%"class.boost::thread_specific_ptr.11" = type { ptr }
%"class.icu_70::Locale" = type <{ %"class.icu_70::UObject", [12 x i8], [6 x i8], [4 x i8], [2 x i8], i32, [4 x i8], ptr, [157 x i8], [3 x i8], ptr, i8, [7 x i8] }>

@.str = private unnamed_addr constant [3 x i8] c"EE\00", align 1
@.str.1 = private unnamed_addr constant [5 x i8] c"EEEE\00", align 1
@.str.2 = private unnamed_addr constant [4 x i8] c"MMM\00", align 1
@.str.3 = private unnamed_addr constant [5 x i8] c"MMMM\00", align 1
@.str.4 = private unnamed_addr constant [3 x i8] c"dd\00", align 1
@.str.5 = private unnamed_addr constant [9 x i8] c"MM/dd/yy\00", align 1
@.str.6 = private unnamed_addr constant [2 x i8] c"d\00", align 1
@.str.7 = private unnamed_addr constant [3 x i8] c"HH\00", align 1
@.str.8 = private unnamed_addr constant [3 x i8] c"hh\00", align 1
@.str.9 = private unnamed_addr constant [2 x i8] c"D\00", align 1
@.str.10 = private unnamed_addr constant [3 x i8] c"MM\00", align 1
@.str.11 = private unnamed_addr constant [3 x i8] c"mm\00", align 1
@.str.12 = private unnamed_addr constant [2 x i8] c"\0A\00", align 1
@.str.13 = private unnamed_addr constant [2 x i8] c"a\00", align 1
@.str.14 = private unnamed_addr constant [11 x i8] c"hh:mm:ss a\00", align 1
@.str.15 = private unnamed_addr constant [6 x i8] c"HH:mm\00", align 1
@.str.16 = private unnamed_addr constant [3 x i8] c"ss\00", align 1
@.str.17 = private unnamed_addr constant [2 x i8] c"\09\00", align 1
@.str.18 = private unnamed_addr constant [9 x i8] c"HH:mm:ss\00", align 1
@.str.19 = private unnamed_addr constant [3 x i8] c"yy\00", align 1
@.str.20 = private unnamed_addr constant [5 x i8] c"yyyy\00", align 1
@.str.21 = private unnamed_addr constant [5 x i8] c"vvvv\00", align 1
@.str.22 = private unnamed_addr constant [2 x i8] c"%\00", align 1
@.str.23 = private unnamed_addr constant [1 x i8] zeroinitializer, align 1

; Function Attrs: mustprogress nounwind uwtable
define linkonce_odr hidden noundef nonnull align 8 dereferenceable(64) ptr @_ZNK5boost6locale8impl_icu16formatters_cache19default_time_formatEv(ptr noundef nonnull align 8 dereferenceable(2032) %0) #3 comdat align 2 {
  %2 = alloca ptr, align 8
  store ptr %0, ptr %2, align 8, !tbaa !3
  %3 = load ptr, ptr %2, align 8
  %4 = getelementptr inbounds nuw %"class.boost::locale::impl_icu::formatters_cache", ptr %3, i32 0, i32 6
  ret ptr %4
}

; Function Attrs: mustprogress nounwind uwtable
define linkonce_odr hidden noundef nonnull align 8 dereferenceable(64) ptr @_ZNK5boost6locale8impl_icu16formatters_cache19default_date_formatEv(ptr noundef nonnull align 8 dereferenceable(2032) %0) #3 comdat align 2 {
  %2 = alloca ptr, align 8
  store ptr %0, ptr %2, align 8, !tbaa !3
  %3 = load ptr, ptr %2, align 8
  %4 = getelementptr inbounds nuw %"class.boost::locale::impl_icu::formatters_cache", ptr %3, i32 0, i32 5
  ret ptr %4
}

; Function Attrs: mustprogress nounwind uwtable
define linkonce_odr hidden noundef nonnull align 8 dereferenceable(64) ptr @_ZNK5boost6locale8impl_icu16formatters_cache24default_date_time_formatEv(ptr noundef nonnull align 8 dereferenceable(2032) %0) #3 comdat align 2 {
  %2 = alloca ptr, align 8
  store ptr %0, ptr %2, align 8, !tbaa !3
  %3 = load ptr, ptr %2, align 8
  %4 = getelementptr inbounds nuw %"class.boost::locale::impl_icu::formatters_cache", ptr %3, i32 0, i32 7
  ret ptr %4
}

; Function Attrs: mustprogress uwtable
define hidden void @_ZN5boost6locale8impl_icu22strftime_symbol_to_icuEcRKNS1_16formatters_cacheE(ptr dead_on_unwind noalias writable sret(%"class.icu_70::UnicodeString") align 8 %0, i8 noundef signext %1, ptr noundef nonnull align 8 dereferenceable(2032) %2) #0 {
  %4 = alloca ptr, align 8
  %5 = alloca i8, align 1
  %6 = alloca ptr, align 8
  store ptr %0, ptr %4, align 8
  store i8 %1, ptr %5, align 1, !tbaa !26
  store ptr %2, ptr %6, align 8, !tbaa !3
  %7 = load i8, ptr %5, align 1, !tbaa !26
  %8 = sext i8 %7 to i32
  switch i32 %8, label %42 [
    i32 97, label %9
    i32 65, label %10
    i32 98, label %11
    i32 66, label %12
    i32 99, label %13
    i32 100, label %16
    i32 68, label %17
    i32 101, label %18
    i32 104, label %19
    i32 72, label %20
    i32 73, label %21
    i32 106, label %22
    i32 109, label %23
    i32 77, label %24
    i32 110, label %25
    i32 112, label %26
    i32 114, label %27
    i32 82, label %28
    i32 83, label %29
    i32 116, label %30
    i32 84, label %31
    i32 120, label %32
    i32 88, label %35
    i32 121, label %38
    i32 89, label %39
    i32 90, label %40
    i32 37, label %41
  ]

9:                                                ; preds = %3
  call void @_ZN6icu_7013UnicodeStringC1EPKc(ptr noundef nonnull align 8 dereferenceable(64) %0, ptr noundef @.str)
  br label %43

10:                                               ; preds = %3
  call void @_ZN6icu_7013UnicodeStringC1EPKc(ptr noundef nonnull align 8 dereferenceable(64) %0, ptr noundef @.str.1)
  br label %43

11:                                               ; preds = %3
  call void @_ZN6icu_7013UnicodeStringC1EPKc(ptr noundef nonnull align 8 dereferenceable(64) %0, ptr noundef @.str.2)
  br label %43

12:                                               ; preds = %3
  call void @_ZN6icu_7013UnicodeStringC1EPKc(ptr noundef nonnull align 8 dereferenceable(64) %0, ptr noundef @.str.3)
  br label %43

13:                                               ; preds = %3
  %14 = load ptr, ptr %6, align 8, !tbaa !3
  %15 = call noundef nonnull align 8 dereferenceable(64) ptr @_ZNK5boost6locale8impl_icu16formatters_cache24default_date_time_formatEv(ptr noundef nonnull align 8 dereferenceable(2032) %14)
  call void @_ZN6icu_7013UnicodeStringC1ERKS0_(ptr noundef nonnull align 8 dereferenceable(64) %0, ptr noundef nonnull align 8 dereferenceable(64) %15)
  br label %43

16:                                               ; preds = %3
  call void @_ZN6icu_7013UnicodeStringC1EPKc(ptr noundef nonnull align 8 dereferenceable(64) %0, ptr noundef @.str.4)
  br label %43

17:                                               ; preds = %3
  call void @_ZN6icu_7013UnicodeStringC1EPKc(ptr noundef nonnull align 8 dereferenceable(64) %0, ptr noundef @.str.5)
  br label %43

18:                                               ; preds = %3
  call void @_ZN6icu_7013UnicodeStringC1EPKc(ptr noundef nonnull align 8 dereferenceable(64) %0, ptr noundef @.str.6)
  br label %43

19:                                               ; preds = %3
  call void @_ZN6icu_7013UnicodeStringC1EPKc(ptr noundef nonnull align 8 dereferenceable(64) %0, ptr noundef @.str.2)
  br label %43

20:                                               ; preds = %3
  call void @_ZN6icu_7013UnicodeStringC1EPKc(ptr noundef nonnull align 8 dereferenceable(64) %0, ptr noundef @.str.7)
  br label %43

21:                                               ; preds = %3
  call void @_ZN6icu_7013UnicodeStringC1EPKc(ptr noundef nonnull align 8 dereferenceable(64) %0, ptr noundef @.str.8)
  br label %43

22:                                               ; preds = %3
  call void @_ZN6icu_7013UnicodeStringC1EPKc(ptr noundef nonnull align 8 dereferenceable(64) %0, ptr noundef @.str.9)
  br label %43

23:                                               ; preds = %3
  call void @_ZN6icu_7013UnicodeStringC1EPKc(ptr noundef nonnull align 8 dereferenceable(64) %0, ptr noundef @.str.10)
  br label %43

24:                                               ; preds = %3
  call void @_ZN6icu_7013UnicodeStringC1EPKc(ptr noundef nonnull align 8 dereferenceable(64) %0, ptr noundef @.str.11)
  br label %43

25:                                               ; preds = %3
  call void @_ZN6icu_7013UnicodeStringC1EPKc(ptr noundef nonnull align 8 dereferenceable(64) %0, ptr noundef @.str.12)
  br label %43

26:                                               ; preds = %3
  call void @_ZN6icu_7013UnicodeStringC1EPKc(ptr noundef nonnull align 8 dereferenceable(64) %0, ptr noundef @.str.13)
  br label %43

27:                                               ; preds = %3
  call void @_ZN6icu_7013UnicodeStringC1EPKc(ptr noundef nonnull align 8 dereferenceable(64) %0, ptr noundef @.str.14)
  br label %43

28:                                               ; preds = %3
  call void @_ZN6icu_7013UnicodeStringC1EPKc(ptr noundef nonnull align 8 dereferenceable(64) %0, ptr noundef @.str.15)
  br label %43

29:                                               ; preds = %3
  call void @_ZN6icu_7013UnicodeStringC1EPKc(ptr noundef nonnull align 8 dereferenceable(64) %0, ptr noundef @.str.16)
  br label %43

30:                                               ; preds = %3
  call void @_ZN6icu_7013UnicodeStringC1EPKc(ptr noundef nonnull align 8 dereferenceable(64) %0, ptr noundef @.str.17)
  br label %43

31:                                               ; preds = %3
  call void @_ZN6icu_7013UnicodeStringC1EPKc(ptr noundef nonnull align 8 dereferenceable(64) %0, ptr noundef @.str.18)
  br label %43

32:                                               ; preds = %3
  %33 = load ptr, ptr %6, align 8, !tbaa !3
  %34 = call noundef nonnull align 8 dereferenceable(64) ptr @_ZNK5boost6locale8impl_icu16formatters_cache19default_date_formatEv(ptr noundef nonnull align 8 dereferenceable(2032) %33)
  call void @_ZN6icu_7013UnicodeStringC1ERKS0_(ptr noundef nonnull align 8 dereferenceable(64) %0, ptr noundef nonnull align 8 dereferenceable(64) %34)
  br label %43

35:                                               ; preds = %3
  %36 = load ptr, ptr %6, align 8, !tbaa !3
  %37 = call noundef nonnull align 8 dereferenceable(64) ptr @_ZNK5boost6locale8impl_icu16formatters_cache19default_time_formatEv(ptr noundef nonnull align 8 dereferenceable(2032) %36)
  call void @_ZN6icu_7013UnicodeStringC1ERKS0_(ptr noundef nonnull align 8 dereferenceable(64) %0, ptr noundef nonnull align 8 dereferenceable(64) %37)
  br label %43

38:                                               ; preds = %3
  call void @_ZN6icu_7013UnicodeStringC1EPKc(ptr noundef nonnull align 8 dereferenceable(64) %0, ptr noundef @.str.19)
  br label %43

39:                                               ; preds = %3
  call void @_ZN6icu_7013UnicodeStringC1EPKc(ptr noundef nonnull align 8 dereferenceable(64) %0, ptr noundef @.str.20)
  br label %43

40:                                               ; preds = %3
  call void @_ZN6icu_7013UnicodeStringC1EPKc(ptr noundef nonnull align 8 dereferenceable(64) %0, ptr noundef @.str.21)
  br label %43

41:                                               ; preds = %3
  call void @_ZN6icu_7013UnicodeStringC1EPKc(ptr noundef nonnull align 8 dereferenceable(64) %0, ptr noundef @.str.22)
  br label %43

42:                                               ; preds = %3
  call void @_ZN6icu_7013UnicodeStringC1EPKc(ptr noundef nonnull align 8 dereferenceable(64) %0, ptr noundef @.str.23)
  br label %43

43:                                               ; preds = %42, %41, %40, %39, %38, %35, %32, %31, %30, %29, %28, %27, %26, %25, %24, %23, %22, %21, %20, %19, %18, %17, %16, %13, %12, %11, %10, %9
  ret void
}