; Function Attrs: mustprogress uwtable
define hidden void @_ZN5boost6locale8impl_icu22strftime_symbol_to_icuEcRKNS1_16formatters_cacheE(ptr dead_on_unwind noalias writable sret(%"class.icu_70::UnicodeString") align 8 %0, i8 noundef signext %1, ptr noundef nonnull align 8 dereferenceable(2032) %2) local_unnamed_addr #0 {
  switch i8 %1, label %34 [
    i8 97, label %4
    i8 65, label %5
    i8 98, label %6
    i8 66, label %7
    i8 99, label %8
    i8 100, label %10
    i8 68, label %11
    i8 101, label %12
    i8 104, label %13
    i8 72, label %14
    i8 73, label %15
    i8 106, label %16
    i8 109, label %17
    i8 77, label %18
    i8 110, label %19
    i8 112, label %20
    i8 114, label %21
    i8 82, label %22
    i8 83, label %23
    i8 116, label %24
    i8 84, label %25
    i8 120, label %26
    i8 88, label %28
    i8 121, label %30
    i8 89, label %31
    i8 90, label %32
    i8 37, label %33
  ]

4:                                                ; preds = %3
  tail call void @_ZN6icu_7013UnicodeStringC1EPKc(ptr noundef nonnull align 8 dereferenceable(64) %0, ptr noundef nonnull @.str)
  br label %35

5:                                                ; preds = %3
  tail call void @_ZN6icu_7013UnicodeStringC1EPKc(ptr noundef nonnull align 8 dereferenceable(64) %0, ptr noundef nonnull @.str.1)
  br label %35

6:                                                ; preds = %3
  tail call void @_ZN6icu_7013UnicodeStringC1EPKc(ptr noundef nonnull align 8 dereferenceable(64) %0, ptr noundef nonnull @.str.2)
  br label %35

7:                                                ; preds = %3
  tail call void @_ZN6icu_7013UnicodeStringC1EPKc(ptr noundef nonnull align 8 dereferenceable(64) %0, ptr noundef nonnull @.str.3)
  br label %35

8:                                                ; preds = %3
  %9 = getelementptr inbounds nuw i8, ptr %2, i64 1736
  tail call void @_ZN6icu_7013UnicodeStringC1ERKS0_(ptr noundef nonnull align 8 dereferenceable(64) %0, ptr noundef nonnull align 8 dereferenceable(64) %9)
  br label %35

10:                                               ; preds = %3
  tail call void @_ZN6icu_7013UnicodeStringC1EPKc(ptr noundef nonnull align 8 dereferenceable(64) %0, ptr noundef nonnull @.str.4)
  br label %35

11:                                               ; preds = %3
  tail call void @_ZN6icu_7013UnicodeStringC1EPKc(ptr noundef nonnull align 8 dereferenceable(64) %0, ptr noundef nonnull @.str.5)
  br label %35

12:                                               ; preds = %3
  tail call void @_ZN6icu_7013UnicodeStringC1EPKc(ptr noundef nonnull align 8 dereferenceable(64) %0, ptr noundef nonnull @.str.6)
  br label %35

13:                                               ; preds = %3
  tail call void @_ZN6icu_7013UnicodeStringC1EPKc(ptr noundef nonnull align 8 dereferenceable(64) %0, ptr noundef nonnull @.str.2)
  br label %35

14:                                               ; preds = %3
  tail call void @_ZN6icu_7013UnicodeStringC1EPKc(ptr noundef nonnull align 8 dereferenceable(64) %0, ptr noundef nonnull @.str.7)
  br label %35

15:                                               ; preds = %3
  tail call void @_ZN6icu_7013UnicodeStringC1EPKc(ptr noundef nonnull align 8 dereferenceable(64) %0, ptr noundef nonnull @.str.8)
  br label %35

16:                                               ; preds = %3
  tail call void @_ZN6icu_7013UnicodeStringC1EPKc(ptr noundef nonnull align 8 dereferenceable(64) %0, ptr noundef nonnull @.str.9)
  br label %35

17:                                               ; preds = %3
  tail call void @_ZN6icu_7013UnicodeStringC1EPKc(ptr noundef nonnull align 8 dereferenceable(64) %0, ptr noundef nonnull @.str.10)
  br label %35

18:                                               ; preds = %3
  tail call void @_ZN6icu_7013UnicodeStringC1EPKc(ptr noundef nonnull align 8 dereferenceable(64) %0, ptr noundef nonnull @.str.11)
  br label %35

19:                                               ; preds = %3
  tail call void @_ZN6icu_7013UnicodeStringC1EPKc(ptr noundef nonnull align 8 dereferenceable(64) %0, ptr noundef nonnull @.str.12)
  br label %35

20:                                               ; preds = %3
  tail call void @_ZN6icu_7013UnicodeStringC1EPKc(ptr noundef nonnull align 8 dereferenceable(64) %0, ptr noundef nonnull @.str.13)
  br label %35

21:                                               ; preds = %3
  tail call void @_ZN6icu_7013UnicodeStringC1EPKc(ptr noundef nonnull align 8 dereferenceable(64) %0, ptr noundef nonnull @.str.14)
  br label %35

22:                                               ; preds = %3
  tail call void @_ZN6icu_7013UnicodeStringC1EPKc(ptr noundef nonnull align 8 dereferenceable(64) %0, ptr noundef nonnull @.str.15)
  br label %35

23:                                               ; preds = %3
  tail call void @_ZN6icu_7013UnicodeStringC1EPKc(ptr noundef nonnull align 8 dereferenceable(64) %0, ptr noundef nonnull @.str.16)
  br label %35

24:                                               ; preds = %3
  tail call void @_ZN6icu_7013UnicodeStringC1EPKc(ptr noundef nonnull align 8 dereferenceable(64) %0, ptr noundef nonnull @.str.17)
  br label %35

25:                                               ; preds = %3
  tail call void @_ZN6icu_7013UnicodeStringC1EPKc(ptr noundef nonnull align 8 dereferenceable(64) %0, ptr noundef nonnull @.str.18)
  br label %35

26:                                               ; preds = %3
  %27 = getelementptr inbounds nuw i8, ptr %2, i64 1608
  tail call void @_ZN6icu_7013UnicodeStringC1ERKS0_(ptr noundef nonnull align 8 dereferenceable(64) %0, ptr noundef nonnull align 8 dereferenceable(64) %27)
  br label %35

28:                                               ; preds = %3
  %29 = getelementptr inbounds nuw i8, ptr %2, i64 1672
  tail call void @_ZN6icu_7013UnicodeStringC1ERKS0_(ptr noundef nonnull align 8 dereferenceable(64) %0, ptr noundef nonnull align 8 dereferenceable(64) %29)
  br label %35

30:                                               ; preds = %3
  tail call void @_ZN6icu_7013UnicodeStringC1EPKc(ptr noundef nonnull align 8 dereferenceable(64) %0, ptr noundef nonnull @.str.19)
  br label %35

31:                                               ; preds = %3
  tail call void @_ZN6icu_7013UnicodeStringC1EPKc(ptr noundef nonnull align 8 dereferenceable(64) %0, ptr noundef nonnull @.str.20)
  br label %35

32:                                               ; preds = %3
  tail call void @_ZN6icu_7013UnicodeStringC1EPKc(ptr noundef nonnull align 8 dereferenceable(64) %0, ptr noundef nonnull @.str.21)
  br label %35

33:                                               ; preds = %3
  tail call void @_ZN6icu_7013UnicodeStringC1EPKc(ptr noundef nonnull align 8 dereferenceable(64) %0, ptr noundef nonnull @.str.22)
  br label %35

34:                                               ; preds = %3
  tail call void @_ZN6icu_7013UnicodeStringC1EPKc(ptr noundef nonnull align 8 dereferenceable(64) %0, ptr noundef nonnull @.str.23)
  br label %35

35:                                               ; preds = %34, %33, %32, %31, %30, %28, %26, %25, %24, %23, %22, %21, %20, %19, %18, %17, %16, %15, %14, %13, %12, %11, %10, %8, %7, %6, %5, %4
  ret void
}